Certificate:
    Data:
        Version: 3 (0x2)
        Serial Number:
            4e:38:d1:d6:59:d4:32:0a:9c:31:fd:31:08:16:15:f4
        Signature Algorithm: sha256WithRSAEncryption
        Issuer: CN=otus
        Validity
            Not Before: Nov 26 16:33:54 2019 GMT
            Not After : Feb 28 16:33:54 2022 GMT
        Subject: CN=server
        Subject Public Key Info:
            Public Key Algorithm: rsaEncryption
                RSA Public-Key: (2048 bit)
                Modulus:
                    00:d6:a9:c9:15:5a:2a:e5:ee:03:d1:24:c9:df:23:
                    1a:b5:d6:bc:0f:cd:66:ec:5d:b8:02:2a:a2:df:00:
                    f4:a3:ae:aa:fa:32:f5:bd:5e:38:fb:5e:66:61:d0:
                    db:75:13:d1:1e:85:70:0d:61:df:c6:b7:9c:3d:f3:
                    8c:39:2d:c4:54:8b:32:51:43:9c:ee:5f:92:a2:df:
                    0e:de:e3:d1:e9:94:90:39:fa:10:31:d6:fe:03:19:
                    58:ae:b3:49:48:1d:f1:db:3e:bd:cc:28:2e:07:ae:
                    71:da:ee:b3:a1:13:84:3d:1d:7e:3a:d2:d2:fe:1a:
                    8f:b0:b2:93:3a:76:55:b4:4d:2f:b2:e1:50:2d:6c:
                    c2:04:11:73:7a:6c:54:2e:c7:03:b3:8d:31:b7:0b:
                    dc:5b:c0:99:ae:68:75:76:1f:20:f9:2a:c7:09:22:
                    d8:99:fa:5f:16:0d:16:ae:73:0e:c7:9e:b8:9e:24:
                    72:3b:55:8c:10:7e:d1:42:29:60:d2:ba:e0:2c:45:
                    80:5c:c9:ef:f2:04:70:99:47:3a:7a:8e:1a:39:2a:
                    d8:18:75:cc:49:0d:c7:cf:05:5f:0b:42:df:3b:48:
                    a4:9a:65:d7:5f:6a:71:71:8c:4c:3d:d8:50:e7:2f:
                    41:9e:a5:8e:b1:4e:5b:7b:10:8c:53:11:9c:2c:7b:
                    27:fd
                Exponent: 65537 (0x10001)
        X509v3 extensions:
            X509v3 Basic Constraints: 
                CA:FALSE
            X509v3 Subject Key Identifier: 
                46:13:1B:A4:EA:48:8F:C9:27:5D:89:0E:EA:72:3A:D8:EF:FE:FA:36
            X509v3 Authority Key Identifier: 
                keyid:30:FA:2A:58:28:46:6C:82:57:4A:AA:42:88:23:6B:57:6F:78:07:DC
                DirName:/CN=otus
                serial:7E:6C:B4:6A:BE:8E:D5:D7:ED:0F:13:22:58:8B:43:FB:09:C1:A9:BA

            X509v3 Extended Key Usage: 
                TLS Web Server Authentication
            X509v3 Key Usage: 
                Digital Signature, Key Encipherment
            X509v3 Subject Alternative Name: 
                DNS:server
    Signature Algorithm: sha256WithRSAEncryption
         12:ce:28:81:69:35:1c:7f:58:09:2f:77:87:72:f2:01:8b:a7:
         ad:47:fa:63:f2:2c:8a:5e:7a:42:49:97:3a:4a:84:bf:e7:03:
         9e:47:4c:30:38:09:7a:b4:00:ee:45:79:00:43:27:ac:24:f4:
         96:86:0c:65:3a:9a:0b:bc:ec:9b:05:86:eb:22:ff:44:f5:b0:
         6d:96:86:13:c0:15:67:56:b4:e9:7b:0f:76:07:78:f9:14:4c:
         3a:04:d4:43:b8:47:59:03:79:8d:1a:d0:7d:9a:e9:1c:bd:86:
         6e:b7:4a:1c:68:48:88:58:d4:1b:a5:d1:2e:68:1b:99:48:db:
         63:57:e4:05:ba:47:1a:0b:44:0d:8d:d1:fc:e2:68:22:85:18:
         9e:15:0e:bd:12:c4:45:d5:18:02:14:6e:67:ac:de:91:57:ba:
         b1:81:95:dc:67:c0:a8:93:d9:02:98:16:08:de:1b:c9:f2:f7:
         ba:17:22:e6:e2:6d:72:41:59:2f:7b:97:61:97:97:4a:e7:5f:
         74:97:0b:89:42:c3:a4:18:4f:d7:ca:5f:8d:64:8d:f4:2a:cf:
         5a:5d:c5:cc:51:55:ba:a7:eb:6a:b5:55:9d:93:b3:0a:c2:06:
         ea:1b:64:27:2b:4f:10:af:a5:ec:cc:dc:0f:e3:ff:05:f2:66:
         85:76:75:cc
-----BEGIN CERTIFICATE-----
MIIDWTCCAkGgAwIBAgIQTjjR1lnUMgqcMf0xCBYV9DANBgkqhkiG9w0BAQsFADAP
MQ0wCwYDVQQDDARvdHVzMB4XDTE5MTEyNjE2MzM1NFoXDTIyMDIyODE2MzM1NFow
ETEPMA0GA1UEAwwGc2VydmVyMIIBIjANBgkqhkiG9w0BAQEFAAOCAQ8AMIIBCgKC
AQEA1qnJFVoq5e4D0STJ3yMatda8D81m7F24Aiqi3wD0o66q+jL1vV44+15mYdDb
dRPRHoVwDWHfxrecPfOMOS3EVIsyUUOc7l+Sot8O3uPR6ZSQOfoQMdb+AxlYrrNJ
SB3x2z69zCguB65x2u6zoROEPR1+OtLS/hqPsLKTOnZVtE0vsuFQLWzCBBFzemxU
LscDs40xtwvcW8CZrmh1dh8g+SrHCSLYmfpfFg0WrnMOx564niRyO1WMEH7RQilg
0rrgLEWAXMnv8gRwmUc6eo4aOSrYGHXMSQ3HzwVfC0LfO0ikmmXXX2pxcYxMPdhQ
5y9BnqWOsU5bexCMUxGcLHsn/QIDAQABo4GuMIGrMAkGA1UdEwQCMAAwHQYDVR0O
BBYEFEYTG6TqSI/JJ12JDupyOtjv/vo2MEoGA1UdIwRDMEGAFDD6KlgoRmyCV0qq
Qogja1dveAfcoROkETAPMQ0wCwYDVQQDDARvdHVzghR+bLRqvo7V1+0PEyJYi0P7
CcGpujATBgNVHSUEDDAKBggrBgEFBQcDATALBgNVHQ8EBAMCBaAwEQYDVR0RBAow
CIIGc2VydmVyMA0GCSqGSIb3DQEBCwUAA4IBAQASziiBaTUcf1gJL3eHcvIBi6et
R/pj8iyKXnpCSZc6SoS/5wOeR0wwOAl6tADuRXkAQyesJPSWhgxlOpoLvOybBYbr
Iv9E9bBtloYTwBVnVrTpew92B3j5FEw6BNRDuEdZA3mNGtB9mukcvYZut0ocaEiI
WNQbpdEuaBuZSNtjV+QFukcaC0QNjdH84mgihRieFQ69EsRF1RgCFG5nrN6RV7qx
gZXcZ8Cok9kCmBYI3hvJ8ve6FyLm4m1yQVkve5dhl5dK5190lwuJQsOkGE/Xyl+N
ZI30Ks9aXcXMUVW6p+tqtVWdk7MKwgbqG2QnK08Qr6XszNwP4/8F8maFdnXM
-----END CERTIFICATE-----
