Certificate:
    Data:
        Version: 3 (0x2)
        Serial Number:
            2b:05:bc:2f:28:8a:d2:d2:40:5b:86:fd:92:57:ba:7e
        Signature Algorithm: sha256WithRSAEncryption
        Issuer: CN=otus
        Validity
            Not Before: Nov 26 16:34:59 2019 GMT
            Not After : Feb 28 16:34:59 2022 GMT
        Subject: CN=client
        Subject Public Key Info:
            Public Key Algorithm: rsaEncryption
                RSA Public-Key: (2048 bit)
                Modulus:
                    00:a8:96:d2:65:d0:fe:5e:d2:d4:22:36:cb:e8:a5:
                    68:62:e7:ff:cf:40:41:64:1a:c2:42:50:3e:60:c3:
                    25:8f:c1:1f:aa:69:16:e3:fb:9e:d7:8c:ae:a5:41:
                    e8:9b:1e:64:a1:5b:f0:4f:8b:0a:bb:0f:bf:e8:6f:
                    d7:7c:b2:b8:37:5c:3e:85:30:22:ae:cb:ba:bb:2f:
                    d4:e5:d1:b3:b3:0d:1e:54:31:cb:4c:d3:e1:a4:cd:
                    09:e3:a2:b9:45:88:b0:02:a9:b3:b8:38:da:cb:dd:
                    21:39:94:42:cb:d0:97:d1:63:d1:47:1f:1b:dd:98:
                    c5:85:8c:1c:21:a3:c7:44:e7:b4:10:2b:9d:c7:fc:
                    f0:1a:bc:bb:4f:8f:6d:31:8d:9d:1e:04:bf:2e:ec:
                    fa:5c:af:7f:67:97:9b:1f:47:40:5a:e3:11:12:d3:
                    f2:a7:0b:95:f0:ca:c8:7b:e0:eb:91:33:8d:69:2c:
                    e0:8f:63:64:31:2b:0f:c6:9a:81:dd:ea:83:c6:1a:
                    b6:32:82:17:59:1b:2b:aa:c2:f1:0f:81:fd:79:12:
                    a8:16:04:09:43:75:1f:5d:5f:f0:8d:7b:c7:3f:d6:
                    4a:09:97:7c:69:fd:50:b1:3c:7d:2b:cf:7a:ca:1a:
                    1a:d1:ca:fa:d5:2e:57:13:35:91:27:64:04:c5:e8:
                    9e:5f
                Exponent: 65537 (0x10001)
        X509v3 extensions:
            X509v3 Basic Constraints: 
                CA:FALSE
            X509v3 Subject Key Identifier: 
                F4:46:F7:29:9C:87:39:00:9C:C1:45:B0:43:AF:35:4D:75:12:C5:0E
            X509v3 Authority Key Identifier: 
                keyid:30:FA:2A:58:28:46:6C:82:57:4A:AA:42:88:23:6B:57:6F:78:07:DC
                DirName:/CN=otus
                serial:7E:6C:B4:6A:BE:8E:D5:D7:ED:0F:13:22:58:8B:43:FB:09:C1:A9:BA

            X509v3 Extended Key Usage: 
                TLS Web Client Authentication
            X509v3 Key Usage: 
                Digital Signature
    Signature Algorithm: sha256WithRSAEncryption
         3b:8b:13:22:84:7f:20:68:f2:9e:62:5a:2b:54:6d:00:5e:3d:
         e6:4c:77:97:74:ee:99:54:01:d2:81:56:1a:1f:30:04:13:fe:
         d4:7c:7e:c6:b2:a5:ac:77:f9:91:11:dc:39:9d:e9:cc:1f:42:
         34:4d:a6:f8:72:79:d2:92:19:4f:c9:9c:01:94:f7:a3:86:f3:
         97:03:5e:41:b6:e3:a0:46:f1:dd:cb:8e:5b:b1:f8:da:23:6b:
         73:fb:75:b7:6c:36:03:cf:5e:dc:87:01:26:5c:37:d2:c4:97:
         7a:25:7a:49:a7:09:8f:a5:85:94:05:37:48:5d:7f:eb:1d:13:
         22:03:3a:af:c2:e8:c3:6a:a3:e4:39:d4:17:3f:34:31:a9:50:
         dd:b6:10:29:6e:8c:ce:14:dc:80:21:97:18:a4:05:90:b2:ff:
         37:5b:1c:30:0f:29:51:01:2e:cb:64:3d:a7:70:40:85:d2:a9:
         73:f0:4b:00:d3:e1:c5:9f:e3:a4:06:d1:f7:79:3f:99:13:6b:
         be:1e:6b:10:0f:83:cc:23:54:c9:ed:e2:7a:21:48:82:db:dd:
         66:58:d8:e2:11:76:b8:c2:4b:30:ec:44:e1:4a:9a:de:89:27:
         29:34:8a:82:8f:9b:b9:95:80:fe:f0:de:a2:80:0c:7f:a3:e2:
         78:3a:b3:5e
-----BEGIN CERTIFICATE-----
MIIDRjCCAi6gAwIBAgIQKwW8LyiK0tJAW4b9kle6fjANBgkqhkiG9w0BAQsFADAP
MQ0wCwYDVQQDDARvdHVzMB4XDTE5MTEyNjE2MzQ1OVoXDTIyMDIyODE2MzQ1OVow
ETEPMA0GA1UEAwwGY2xpZW50MIIBIjANBgkqhkiG9w0BAQEFAAOCAQ8AMIIBCgKC
AQEAqJbSZdD+XtLUIjbL6KVoYuf/z0BBZBrCQlA+YMMlj8EfqmkW4/ue14yupUHo
mx5koVvwT4sKuw+/6G/XfLK4N1w+hTAirsu6uy/U5dGzsw0eVDHLTNPhpM0J46K5
RYiwAqmzuDjay90hOZRCy9CX0WPRRx8b3ZjFhYwcIaPHROe0ECudx/zwGry7T49t
MY2dHgS/Luz6XK9/Z5ebH0dAWuMREtPypwuV8MrIe+DrkTONaSzgj2NkMSsPxpqB
3eqDxhq2MoIXWRsrqsLxD4H9eRKoFgQJQ3UfXV/wjXvHP9ZKCZd8af1QsTx9K896
yhoa0cr61S5XEzWRJ2QExeieXwIDAQABo4GbMIGYMAkGA1UdEwQCMAAwHQYDVR0O
BBYEFPRG9ymchzkAnMFFsEOvNU11EsUOMEoGA1UdIwRDMEGAFDD6KlgoRmyCV0qq
Qogja1dveAfcoROkETAPMQ0wCwYDVQQDDARvdHVzghR+bLRqvo7V1+0PEyJYi0P7
CcGpujATBgNVHSUEDDAKBggrBgEFBQcDAjALBgNVHQ8EBAMCB4AwDQYJKoZIhvcN
AQELBQADggEBADuLEyKEfyBo8p5iWitUbQBePeZMd5d07plUAdKBVhofMAQT/tR8
fsaypax3+ZER3Dmd6cwfQjRNpvhyedKSGU/JnAGU96OG85cDXkG246BG8d3Ljlux
+Noja3P7dbdsNgPPXtyHASZcN9LEl3olekmnCY+lhZQFN0hdf+sdEyIDOq/C6MNq
o+Q51Bc/NDGpUN22EClujM4U3IAhlxikBZCy/zdbHDAPKVEBLstkPadwQIXSqXPw
SwDT4cWf46QG0fd5P5kTa74eaxAPg8wjVMnt4nohSILb3WZY2OIRdrjCSzDsROFK
mt6JJyk0ioKPm7mVgP7w3qKADH+j4ng6s14=
-----END CERTIFICATE-----
